ccollections
OrderedDict
p0
((lp1
(lp2
I1
ag0
((lp3
(lp4
S'move_p'
p5
ag0
((lp6
(lp7
S'Hard Puff'
p8
acnumpy.core.multiarray
scalar
p9
(cnumpy
dtype
p10
(S'f8'
p11
I0
I1
tp12
Rp13
(I3
S'<'
p14
NNNI-1
I-1
I0
tp15
bS'\x1a\xd3\xc4c\x8b5\n?'
p16
tp17
Rp18
aa(lp19
S'Hard Sip'
p20
ag9
(g13
S'\x1a\xd3\xc4c\x8b5\n?'
p21
tp22
Rp23
aa(lp24
S'Soft Puff'
p25
ag9
(g13
S'\xc5Rw}\xc5\xfe\xef?'
p26
tp27
Rp28
aa(lp29
S'Soft Sip'
p30
ag9
(g13
S'\x1a\xd3\xc4c\x8b5\n?'
p31
tp32
Rp33
aatp34
Rp35
aa(lp36
S'to_mode_r'
p37
ag0
((lp38
(lp39
g8
ag9
(g13
S'\xd4\t \x1b\x8b\xfd\xef?'
p40
tp41
Rp42
aa(lp43
g20
ag9
(g13
S'1/\x97\xff34\x1a?'
p44
tp45
Rp46
aa(lp47
g25
ag9
(g13
S'1/\x97\xff34\x1a?'
p48
tp49
Rp50
aa(lp51
g30
ag9
(g13
S'1/\x97\xff34\x1a?'
p52
tp53
Rp54
aatp55
Rp56
aa(lp57
S'move_n'
p58
ag0
((lp59
(lp60
g8
ag9
(g13
S'\x1a\xd3\xc4c\x8b5\n?'
p61
tp62
Rp63
aa(lp64
g20
ag9
(g13
S'\x1a\xd3\xc4c\x8b5\n?'
p65
tp66
Rp67
aa(lp68
g25
ag9
(g13
S'\x1a\xd3\xc4c\x8b5\n?'
p69
tp70
Rp71
aa(lp72
g30
ag9
(g13
S'\xc5Rw}\xc5\xfe\xef?'
p73
tp74
Rp75
aatp76
Rp77
aa(lp78
S'to_mode_l'
p79
ag0
((lp80
(lp81
g8
ag9
(g13
S'\x00\x00\x00\x00\x00\x00\xd0?'
p82
tp83
Rp84
aa(lp85
g20
ag9
(g13
S'\x8d\x06\xc0\xbc\\\xfe\xe7?'
p86
tp87
Rp88
aa(lp89
g25
ag9
(g13
S'1/\x97\xff34\x1a?'
p90
tp91
Rp92
aa(lp93
g30
ag9
(g13
S'1/\x97\xff34\x1a?'
p94
tp95
Rp96
aatp97
Rp98
aatp99
Rp100
aa(lp101
I2
ag0
((lp102
(lp103
g5
ag0
((lp104
(lp105
g8
ag9
(g13
S'\x1a\xd3\xc4c\x8b5\n?'
p106
tp107
Rp108
aa(lp109
g20
ag9
(g13
S'\x1a\xd3\xc4c\x8b5\n?'
p110
tp111
Rp112
aa(lp113
g25
ag9
(g13
S'\xc5Rw}\xc5\xfe\xef?'
p114
tp115
Rp116
aa(lp117
g30
ag9
(g13
S'\x1a\xd3\xc4c\x8b5\n?'
p118
tp119
Rp120
aatp121
Rp122
aa(lp123
g37
ag0
((lp124
(lp125
g8
ag9
(g13
S'\xd4\t \x1b\x8b\xfd\xef?'
p126
tp127
Rp128
aa(lp129
g20
ag9
(g13
S'1/\x97\xff34\x1a?'
p130
tp131
Rp132
aa(lp133
g25
ag9
(g13
S'1/\x97\xff34\x1a?'
p134
tp135
Rp136
aa(lp137
g30
ag9
(g13
S'1/\x97\xff34\x1a?'
p138
tp139
Rp140
aatp141
Rp142
aa(lp143
g58
ag0
((lp144
(lp145
g8
ag9
(g13
S'\x1a\xd3\xc4c\x8b5\n?'
p146
tp147
Rp148
aa(lp149
g20
ag9
(g13
S'\x1a\xd3\xc4c\x8b5\n?'
p150
tp151
Rp152
aa(lp153
g25
ag9
(g13
S'\x1a\xd3\xc4c\x8b5\n?'
p154
tp155
Rp156
aa(lp157
g30
ag9
(g13
S'\xc5Rw}\xc5\xfe\xef?'
p158
tp159
Rp160
aatp161
Rp162
aa(lp163
g79
ag0
((lp164
(lp165
g8
ag9
(g13
S'1/\x97\xff34\x1a?'
p166
tp167
Rp168
aa(lp169
g20
ag9
(g13
S'\xd4\t \x1b\x8b\xfd\xef?'
p170
tp171
Rp172
aa(lp173
g25
ag9
(g13
S'1/\x97\xff34\x1a?'
p174
tp175
Rp176
aa(lp177
g30
ag9
(g13
S'1/\x97\xff34\x1a?'
p178
tp179
Rp180
aatp181
Rp182
aatp183
Rp184
aa(lp185
I3
ag0
((lp186
(lp187
g5
ag0
((lp188
(lp189
g8
ag9
(g13
S'\x1a\xd3\xc4c\x8b5\n?'
p190
tp191
Rp192
aa(lp193
g20
ag9
(g13
S'\x1a\xd3\xc4c\x8b5\n?'
p194
tp195
Rp196
aa(lp197
g25
ag9
(g13
S'\xc5Rw}\xc5\xfe\xef?'
p198
tp199
Rp200
aa(lp201
g30
ag9
(g13
S'\x1a\xd3\xc4c\x8b5\n?'
p202
tp203
Rp204
aatp205
Rp206
aa(lp207
g37
ag0
((lp208
(lp209
g8
ag9
(g13
S'\xd4\t \x1b\x8b\xfd\xef?'
p210
tp211
Rp212
aa(lp213
g20
ag9
(g13
S'1/\x97\xff34\x1a?'
p214
tp215
Rp216
aa(lp217
g25
ag9
(g13
S'1/\x97\xff34\x1a?'
p218
tp219
Rp220
aa(lp221
g30
ag9
(g13
S'1/\x97\xff34\x1a?'
p222
tp223
Rp224
aatp225
Rp226
aa(lp227
g58
ag0
((lp228
(lp229
g8
ag9
(g13
S'\x1a\xd3\xc4c\x8b5\n?'
p230
tp231
Rp232
aa(lp233
g20
ag9
(g13
S'\x1a\xd3\xc4c\x8b5\n?'
p234
tp235
Rp236
aa(lp237
g25
ag9
(g13
S'\x1a\xd3\xc4c\x8b5\n?'
p238
tp239
Rp240
aa(lp241
g30
ag9
(g13
S'\xc5Rw}\xc5\xfe\xef?'
p242
tp243
Rp244
aatp245
Rp246
aa(lp247
g79
ag0
((lp248
(lp249
g8
ag9
(g13
S'1/\x97\xff34\x1a?'
p250
tp251
Rp252
aa(lp253
g20
ag9
(g13
S'\xd4\t \x1b\x8b\xfd\xef?'
p254
tp255
Rp256
aa(lp257
g25
ag9
(g13
S'1/\x97\xff34\x1a?'
p258
tp259
Rp260
aa(lp261
g30
ag9
(g13
S'1/\x97\xff34\x1a?'
p262
tp263
Rp264
aatp265
Rp266
aatp267
Rp268
aatp269
Rp270
.